; Function Attrs: mustprogress uwtable
define void @_ZN5faiss20IndexIVFSpectralHashC2EPNS_5IndexEmmif(ptr noundef nonnull align 8 dereferenceable(312) %0, ptr noundef %1, i64 noundef %2, i64 noundef %3, i32 noundef %4, float noundef %5) unnamed_addr #2 align 2 personality ptr @__gxx_personality_v0 {
  %7 = add nsw i32 %4, 7
  %8 = sdiv i32 %7, 8
  %9 = sext i32 %8 to i64
  tail call void @_ZN5faiss8IndexIVFC2EPNS_5IndexEmmmNS_10MetricTypeE(ptr noundef nonnull align 8 dereferenceable(257) %0, ptr noundef %1, i64 noundef %2, i64 noundef %3, i64 noundef %9, i32 noundef 1)
  store ptr getelementptr inbounds ({ [35 x ptr], [6 x ptr] }, ptr @_ZTVN5faiss20IndexIVFSpectralHashE, i64 0, i32 0, i64 2), ptr %0, align 8
  %10 = getelementptr inbounds i8, ptr %0, i64 40
  store ptr getelementptr inbounds ({ [35 x ptr], [6 x ptr] }, ptr @_ZTVN5faiss20IndexIVFSpectralHashE, i64 0, i32 1, i64 2), ptr %10, align 8
  %11 = getelementptr inbounds i8, ptr %0, i64 264
  store ptr null, ptr %11, align 8
  %12 = getelementptr inbounds i8, ptr %0, i64 272
  store i8 1, ptr %12, align 8
  %13 = getelementptr inbounds i8, ptr %0, i64 276
  store i32 %4, ptr %13, align 4
  %14 = getelementptr inbounds i8, ptr %0, i64 280
  store float %5, ptr %14, align 8
  %15 = getelementptr inbounds i8, ptr %0, i64 284
  %16 = getelementptr inbounds i8, ptr %0, i64 288
  tail call void @llvm.memset.p0.i64(ptr noundef nonnull align 4 dereferenceable(28) %15, i8 0, i64 28, i1 false)
  %17 = invoke noalias noundef nonnull dereferenceable(80) ptr @_Znwm(i64 noundef 80) #24
          to label %18 unwind label %24

18:                                               ; preds = %6
  %19 = trunc i64 %2 to i32
  invoke void @_ZN5faiss15LinearTransformC2Eiib(ptr noundef nonnull align 8 dereferenceable(73) %17, i32 noundef %19, i32 noundef %4, i1 noundef zeroext false)
          to label %20 unwind label %26

20:                                               ; preds = %18
  store ptr getelementptr inbounds ({ [8 x ptr] }, ptr @_ZTVN5faiss20RandomRotationMatrixE, i64 0, i32 0, i64 2), ptr %17, align 8
  invoke void @_ZN5faiss20RandomRotationMatrix4initEi(ptr noundef nonnull align 8 dereferenceable(73) %17, i32 noundef 1234)
          to label %21 unwind label %24

21:                                               ; preds = %20
  store ptr %17, ptr %11, align 8
  %22 = getelementptr inbounds i8, ptr %0, i64 25
  store i8 0, ptr %22, align 1
  %23 = getelementptr inbounds i8, ptr %0, i64 256
  store i8 0, ptr %23, align 8
  ret void

24:                                               ; preds = %20, %6
  %25 = landingpad { ptr, i32 }
          cleanup
  br label %28

26:                                               ; preds = %18
  %27 = landingpad { ptr, i32 }
          cleanup
  tail call void @_ZdlPv(ptr noundef nonnull %17) #22
  br label %28

28:                                               ; preds = %26, %24
  %.pn = phi { ptr, i32 } [ %25, %24 ], [ %27, %26 ]
  %29 = load ptr, ptr %16, align 8
  %.not.i.i.i = icmp eq ptr %29, null
  br i1 %.not.i.i.i, label %_ZNSt6vectorIfSaIfEED2Ev.exit, label %30

30:                                               ; preds = %28
  tail call void @_ZdlPv(ptr noundef nonnull %29) #22
  br label %_ZNSt6vectorIfSaIfEED2Ev.exit

_ZNSt6vectorIfSaIfEED2Ev.exit:                    ; preds = %28, %30
  tail call void @_ZN5faiss8IndexIVFD2Ev(ptr noundef nonnull align 8 dereferenceable(257) %0) #10
  resume { ptr, i32 } %.pn
}